target datalayout = "e-m:e-p270:32:32-p271:32:32-p272:64:64-i64:64-i128:128-f80:128-n8:16:32:64-S128"
target triple = "x86_64-pc-linux-gnu"

%struct.mbedtls_ecp_keypair = type { %struct.mbedtls_ecp_group, %struct.mbedtls_mpi, %struct.mbedtls_ecp_point }
%struct.mbedtls_ecp_group = type { i32, %struct.mbedtls_mpi, %struct.mbedtls_mpi, %struct.mbedtls_mpi, %struct.mbedtls_ecp_point, %struct.mbedtls_mpi, i64, i64, i32, ptr, ptr, ptr, ptr, ptr, i64 }
%struct.mbedtls_mpi = type { ptr, i16, i16 }
%struct.mbedtls_ecp_point = type { %struct.mbedtls_mpi, %struct.mbedtls_mpi, %struct.mbedtls_mpi }

; Function Attrs: nounwind uwtable
define internal i32 @check_ecc_parameters(i8 noundef zeroext %0, ptr noundef %1) #0 {
  %3 = alloca i32, align 4
  %4 = alloca i8, align 1
  %5 = alloca ptr, align 8
  store i8 %0, ptr %4, align 1, !tbaa !26
  store ptr %1, ptr %5, align 8, !tbaa !27
  %6 = load i8, ptr %4, align 1, !tbaa !26
  %7 = zext i8 %6 to i32
  switch i32 %7, label %32 [
    i32 18, label %8
    i32 48, label %15
    i32 65, label %20
    i32 23, label %27
  ]

8:                                                ; preds = %2
  %9 = load ptr, ptr %5, align 8, !tbaa !27
  %10 = load i64, ptr %9, align 8, !tbaa !7
  switch i64 %10, label %14 [
    i64 192, label %11
    i64 224, label %11
    i64 256, label %11
    i64 384, label %11
    i64 521, label %11
    i64 528, label %12
  ]

11:                                               ; preds = %8, %8, %8, %8, %8
  store i32 0, ptr %3, align 4
  br label %33

12:                                               ; preds = %8
  %13 = load ptr, ptr %5, align 8, !tbaa !27
  store i64 521, ptr %13, align 8, !tbaa !7
  store i32 0, ptr %3, align 4
  br label %33

14:                                               ; preds = %8
  br label %32

15:                                               ; preds = %2
  %16 = load ptr, ptr %5, align 8, !tbaa !27
  %17 = load i64, ptr %16, align 8, !tbaa !7
  switch i64 %17, label %19 [
    i64 256, label %18
    i64 384, label %18
    i64 512, label %18
  ]

18:                                               ; preds = %15, %15, %15
  store i32 0, ptr %3, align 4
  br label %33

19:                                               ; preds = %15
  br label %32

20:                                               ; preds = %2
  %21 = load ptr, ptr %5, align 8, !tbaa !27
  %22 = load i64, ptr %21, align 8, !tbaa !7
  switch i64 %22, label %26 [
    i64 448, label %23
    i64 255, label %23
    i64 256, label %24
  ]

23:                                               ; preds = %20, %20
  store i32 0, ptr %3, align 4
  br label %33

24:                                               ; preds = %20
  %25 = load ptr, ptr %5, align 8, !tbaa !27
  store i64 255, ptr %25, align 8, !tbaa !7
  store i32 0, ptr %3, align 4
  br label %33

26:                                               ; preds = %20
  br label %32

27:                                               ; preds = %2
  %28 = load ptr, ptr %5, align 8, !tbaa !27
  %29 = load i64, ptr %28, align 8, !tbaa !7
  switch i64 %29, label %31 [
    i64 192, label %30
    i64 256, label %30
  ]

30:                                               ; preds = %27, %27
  store i32 0, ptr %3, align 4
  br label %33

31:                                               ; preds = %27
  br label %32

32:                                               ; preds = %2, %31, %26, %19, %14
  store i32 -135, ptr %3, align 4
  br label %33

33:                                               ; preds = %32, %30, %24, %23, %18, %12, %11
  %34 = load i32, ptr %3, align 4
  ret i32 %34
}

; Function Attrs: nounwind uwtable
define hidden i32 @mbedtls_psa_ecp_load_representation(i16 noundef zeroext %0, i64 noundef %1, ptr noundef %2, i64 noundef %3, ptr noundef %4) #0 {
  %6 = alloca i32, align 4
  %7 = alloca i16, align 2
  %8 = alloca i64, align 8
  %9 = alloca ptr, align 8
  %10 = alloca i64, align 8
  %11 = alloca ptr, align 8
  %12 = alloca i32, align 4
  %13 = alloca i32, align 4
  %14 = alloca ptr, align 8
  %15 = alloca i64, align 8
  %16 = alloca i32, align 4
  %17 = alloca i32, align 4
  store i16 %0, ptr %7, align 2, !tbaa !3
  store i64 %1, ptr %8, align 8, !tbaa !7
  store ptr %2, ptr %9, align 8, !tbaa !9
  store i64 %3, ptr %10, align 8, !tbaa !7
  store ptr %4, ptr %11, align 8, !tbaa !12
  call void @llvm.lifetime.start.p0(i64 4, ptr %12) #7
  store i32 0, ptr %12, align 4, !tbaa !15
  call void @llvm.lifetime.start.p0(i64 4, ptr %13) #7
  call void @llvm.lifetime.start.p0(i64 8, ptr %14) #7
  store ptr null, ptr %14, align 8, !tbaa !17
  call void @llvm.lifetime.start.p0(i64 8, ptr %15) #7
  %18 = load i64, ptr %10, align 8, !tbaa !7
  store i64 %18, ptr %15, align 8, !tbaa !7
  call void @llvm.lifetime.start.p0(i64 4, ptr %16) #7
  %19 = load i64, ptr %8, align 8, !tbaa !7
  %20 = icmp ne i64 %19, 0
  %21 = zext i1 %20 to i32
  store i32 %21, ptr %16, align 4, !tbaa !15
  %22 = load i16, ptr %7, align 2, !tbaa !3
  %23 = zext i16 %22 to i32
  %24 = and i32 %23, 28672
  %25 = icmp eq i32 %24, 16384
  br i1 %25, label %26, label %50

26:                                               ; preds = %5
  %27 = load i16, ptr %7, align 2, !tbaa !3
  %28 = zext i16 %27 to i32
  %29 = and i32 %28, -12289
  %30 = and i32 %29, -256
  %31 = icmp eq i32 %30, 16640
  br i1 %31, label %32, label %36

32:                                               ; preds = %26
  %33 = load i16, ptr %7, align 2, !tbaa !3
  %34 = zext i16 %33 to i32
  %35 = and i32 %34, 255
  br label %37

36:                                               ; preds = %26
  br label %37

37:                                               ; preds = %36, %32
  %38 = phi i32 [ %35, %32 ], [ 0, %36 ]
  %39 = trunc i32 %38 to i8
  %40 = zext i8 %39 to i32
  %41 = icmp ne i32 %40, 65
  br i1 %41, label %42, label %50

42:                                               ; preds = %37
  %43 = load i64, ptr %10, align 8, !tbaa !7
  %44 = and i64 %43, 1
  %45 = icmp eq i64 %44, 0
  br i1 %45, label %46, label %47

46:                                               ; preds = %42
  store i32 -135, ptr %6, align 4
  store i32 1, ptr %17, align 4
  br label %169

47:                                               ; preds = %42
  %48 = load i64, ptr %10, align 8, !tbaa !7
  %49 = udiv i64 %48, 2
  store i64 %49, ptr %15, align 8, !tbaa !7
  br label %50

50:                                               ; preds = %47, %37, %5
  %51 = load i32, ptr %16, align 4, !tbaa !15
  %52 = icmp ne i32 %51, 0
  br i1 %52, label %53, label %61

53:                                               ; preds = %50
  %54 = load i64, ptr %15, align 8, !tbaa !7
  %55 = load i64, ptr %8, align 8, !tbaa !7
  %56 = add i64 %55, 7
  %57 = udiv i64 %56, 8
  %58 = icmp ne i64 %54, %57
  br i1 %58, label %59, label %60

59:                                               ; preds = %53
  store i32 -135, ptr %6, align 4
  store i32 1, ptr %17, align 4
  br label %169

60:                                               ; preds = %53
  br label %64

61:                                               ; preds = %50
  %62 = load i64, ptr %15, align 8, !tbaa !7
  %63 = mul i64 %62, 8
  store i64 %63, ptr %8, align 8, !tbaa !7
  br label %64

64:                                               ; preds = %61, %60
  %65 = call noalias ptr @calloc(i64 noundef 1, i64 noundef 256) #8
  store ptr %65, ptr %14, align 8, !tbaa !17
  %66 = load ptr, ptr %14, align 8, !tbaa !17
  %67 = icmp eq ptr %66, null
  br i1 %67, label %68, label %69

68:                                               ; preds = %64
  store i32 -141, ptr %6, align 4
  store i32 1, ptr %17, align 4
  br label %169

69:                                               ; preds = %64
  %70 = load ptr, ptr %14, align 8, !tbaa !17
  call void @mbedtls_ecp_keypair_init(ptr noundef %70)
  %71 = load i16, ptr %7, align 2, !tbaa !3
  %72 = zext i16 %71 to i32
  %73 = and i32 %72, -12289
  %74 = and i32 %73, -256
  %75 = icmp eq i32 %74, 16640
  br i1 %75, label %76, label %80

76:                                               ; preds = %69
  %77 = load i16, ptr %7, align 2, !tbaa !3
  %78 = zext i16 %77 to i32
  %79 = and i32 %78, 255
  br label %81

80:                                               ; preds = %69
  br label %81

81:                                               ; preds = %80, %76
  %82 = phi i32 [ %79, %76 ], [ 0, %80 ]
  %83 = trunc i32 %82 to i8
  %84 = call i32 @check_ecc_parameters(i8 noundef zeroext %83, ptr noundef %8)
  store i32 %84, ptr %13, align 4, !tbaa !15
  %85 = load i32, ptr %13, align 4, !tbaa !15
  %86 = icmp ne i32 %85, 0
  br i1 %86, label %87, label %88

87:                                               ; preds = %81
  br label %161

88:                                               ; preds = %81
  %89 = load i16, ptr %7, align 2, !tbaa !3
  %90 = zext i16 %89 to i32
  %91 = and i32 %90, -12289
  %92 = and i32 %91, -256
  %93 = icmp eq i32 %92, 16640
  br i1 %93, label %94, label %98

94:                                               ; preds = %88
  %95 = load i16, ptr %7, align 2, !tbaa !3
  %96 = zext i16 %95 to i32
  %97 = and i32 %96, 255
  br label %99

98:                                               ; preds = %88
  br label %99

99:                                               ; preds = %98, %94
  %100 = phi i32 [ %97, %94 ], [ 0, %98 ]
  %101 = trunc i32 %100 to i8
  %102 = load i64, ptr %8, align 8, !tbaa !7
  %103 = call i32 @mbedtls_ecc_group_from_psa(i8 noundef zeroext %101, i64 noundef %102)
  store i32 %103, ptr %12, align 4, !tbaa !15
  %104 = load i32, ptr %12, align 4, !tbaa !15
  %105 = icmp eq i32 %104, 0
  br i1 %105, label %106, label %107

106:                                              ; preds = %99
  store i32 -134, ptr %13, align 4, !tbaa !15
  br label %161

107:                                              ; preds = %99
  %108 = load ptr, ptr %14, align 8, !tbaa !17
  %109 = getelementptr inbounds nuw %struct.mbedtls_ecp_keypair, ptr %108, i32 0, i32 0
  %110 = load i32, ptr %12, align 4, !tbaa !15
  %111 = call i32 @mbedtls_ecp_group_load(ptr noundef %109, i32 noundef %110)
  %112 = call i32 @mbedtls_to_psa_error(i32 noundef %111)
  store i32 %112, ptr %13, align 4, !tbaa !15
  %113 = load i32, ptr %13, align 4, !tbaa !15
  %114 = icmp ne i32 %113, 0
  br i1 %114, label %115, label %116

115:                                              ; preds = %107
  br label %161

116:                                              ; preds = %107
  %117 = load i16, ptr %7, align 2, !tbaa !3
  %118 = zext i16 %117 to i32
  %119 = and i32 %118, 28672
  %120 = icmp eq i32 %119, 16384
  br i1 %120, label %121, label %144

121:                                              ; preds = %116
  %122 = load ptr, ptr %14, align 8, !tbaa !17
  %123 = getelementptr inbounds nuw %struct.mbedtls_ecp_keypair, ptr %122, i32 0, i32 0
  %124 = load ptr, ptr %14, align 8, !tbaa !17
  %125 = getelementptr inbounds nuw %struct.mbedtls_ecp_keypair, ptr %124, i32 0, i32 2
  %126 = load ptr, ptr %9, align 8, !tbaa !9
  %127 = load i64, ptr %10, align 8, !tbaa !7
  %128 = call i32 @mbedtls_ecp_point_read_binary(ptr noundef %123, ptr noundef %125, ptr noundef %126, i64 noundef %127)
  %129 = call i32 @mbedtls_to_psa_error(i32 noundef %128)
  store i32 %129, ptr %13, align 4, !tbaa !15
  %130 = load i32, ptr %13, align 4, !tbaa !15
  %131 = icmp ne i32 %130, 0
  br i1 %131, label %132, label %133

132:                                              ; preds = %121
  br label %161

133:                                              ; preds = %121
  %134 = load ptr, ptr %14, align 8, !tbaa !17
  %135 = getelementptr inbounds nuw %struct.mbedtls_ecp_keypair, ptr %134, i32 0, i32 0
  %136 = load ptr, ptr %14, align 8, !tbaa !17
  %137 = getelementptr inbounds nuw %struct.mbedtls_ecp_keypair, ptr %136, i32 0, i32 2
  %138 = call i32 @mbedtls_ecp_check_pubkey(ptr noundef %135, ptr noundef %137)
  %139 = call i32 @mbedtls_to_psa_error(i32 noundef %138)
  store i32 %139, ptr %13, align 4, !tbaa !15
  %140 = load i32, ptr %13, align 4, !tbaa !15
  %141 = icmp ne i32 %140, 0
  br i1 %141, label %142, label %143

142:                                              ; preds = %133
  br label %161

143:                                              ; preds = %133
  br label %158

144:                                              ; preds = %116
  %145 = load ptr, ptr %14, align 8, !tbaa !17
  %146 = getelementptr inbounds nuw %struct.mbedtls_ecp_keypair, ptr %145, i32 0, i32 0
  %147 = getelementptr inbounds nuw %struct.mbedtls_ecp_group, ptr %146, i32 0, i32 0
  %148 = load i32, ptr %147, align 8, !tbaa !19
  %149 = load ptr, ptr %14, align 8, !tbaa !17
  %150 = load ptr, ptr %9, align 8, !tbaa !9
  %151 = load i64, ptr %10, align 8, !tbaa !7
  %152 = call i32 @mbedtls_ecp_read_key(i32 noundef %148, ptr noundef %149, ptr noundef %150, i64 noundef %151)
  %153 = call i32 @mbedtls_to_psa_error(i32 noundef %152)
  store i32 %153, ptr %13, align 4, !tbaa !15
  %154 = load i32, ptr %13, align 4, !tbaa !15
  %155 = icmp ne i32 %154, 0
  br i1 %155, label %156, label %157

156:                                              ; preds = %144
  br label %161

157:                                              ; preds = %144
  br label %158

158:                                              ; preds = %157, %143
  %159 = load ptr, ptr %14, align 8, !tbaa !17
  %160 = load ptr, ptr %11, align 8, !tbaa !12
  store ptr %159, ptr %160, align 8, !tbaa !17
  br label %161

161:                                              ; preds = %158, %156, %142, %132, %115, %106, %87
  %162 = load i32, ptr %13, align 4, !tbaa !15
  %163 = icmp ne i32 %162, 0
  br i1 %163, label %164, label %167

164:                                              ; preds = %161
  %165 = load ptr, ptr %14, align 8, !tbaa !17
  call void @mbedtls_ecp_keypair_free(ptr noundef %165)
  %166 = load ptr, ptr %14, align 8, !tbaa !17
  call void @free(ptr noundef %166) #7
  br label %167

167:                                              ; preds = %164, %161
  %168 = load i32, ptr %13, align 4, !tbaa !15
  store i32 %168, ptr %6, align 4
  store i32 1, ptr %17, align 4
  br label %169

169:                                              ; preds = %167, %68, %59, %46
  call void @llvm.lifetime.end.p0(i64 4, ptr %16) #7
  call void @llvm.lifetime.end.p0(i64 8, ptr %15) #7
  call void @llvm.lifetime.end.p0(i64 8, ptr %14) #7
  call void @llvm.lifetime.end.p0(i64 4, ptr %13) #7
  call void @llvm.lifetime.end.p0(i64 4, ptr %12) #7
  %170 = load i32, ptr %6, align 4
  ret i32 %170
}