; Function Attrs: nounwind uwtable
define hidden i32 @mbedtls_psa_ecp_load_representation(i16 noundef zeroext %0, i64 noundef %1, ptr noundef %2, i64 noundef %3, ptr noundef writeonly captures(none) %4) local_unnamed_addr #0 {
  %.not = icmp eq i64 %1, 0
  %6 = zext i16 %0 to i32
  %7 = and i32 %6, 28672
  %8 = icmp eq i32 %7, 16384
  br i1 %8, label %9, label %18

9:                                                ; preds = %5
  %10 = and i32 %6, 52992
  %11 = icmp eq i32 %10, 16640
  %12 = and i16 %0, 255
  %.not5152 = icmp eq i16 %12, 65
  %.not51 = and i1 %.not5152, %11
  br i1 %.not51, label %18, label %13

13:                                               ; preds = %9
  %14 = and i64 %3, 1
  %15 = icmp eq i64 %14, 0
  br i1 %15, label %57, label %16

16:                                               ; preds = %13
  %17 = lshr i64 %3, 1
  br label %18

18:                                               ; preds = %16, %9, %5
  %.040 = phi i64 [ %17, %16 ], [ %3, %9 ], [ %3, %5 ]
  br i1 %.not, label %22, label %19

19:                                               ; preds = %18
  %20 = add i64 %1, 7
  %21 = lshr i64 %20, 3
  %.not53 = icmp eq i64 %.040, %21
  br i1 %.not53, label %24, label %57

22:                                               ; preds = %18
  %23 = shl i64 %.040, 3
  br label %24

24:                                               ; preds = %19, %22
  %.065 = phi i64 [ %23, %22 ], [ %1, %19 ]
  %25 = tail call noalias dereferenceable_or_null(256) ptr @calloc(i64 noundef 1, i64 noundef 256) #6
  %26 = icmp eq ptr %25, null
  br i1 %26, label %57, label %27

27:                                               ; preds = %24
  tail call void @mbedtls_ecp_keypair_init(ptr noundef nonnull %25) #7
  %28 = and i32 %6, 52992
  %29 = icmp eq i32 %28, 16640
  %30 = trunc i16 %0 to i8
  %31 = select i1 %29, i8 %30, i8 0
  switch i8 %31, label %56 [
    i8 18, label %32
    i8 48, label %34
    i8 65, label %35
    i8 23, label %37
  ]

32:                                               ; preds = %27
  switch i64 %.065, label %56 [
    i64 192, label %select.unfold
    i64 224, label %select.unfold
    i64 256, label %select.unfold
    i64 384, label %select.unfold
    i64 521, label %select.unfold
    i64 528, label %33
  ]

33:                                               ; preds = %32
  br label %select.unfold

34:                                               ; preds = %27
  switch i64 %.065, label %56 [
    i64 256, label %select.unfold
    i64 384, label %select.unfold
    i64 512, label %select.unfold
  ]

35:                                               ; preds = %27
  switch i64 %.065, label %56 [
    i64 448, label %select.unfold
    i64 255, label %select.unfold
    i64 256, label %36
  ]

36:                                               ; preds = %35
  br label %select.unfold

37:                                               ; preds = %27
  %38 = add i64 %.065, -192
  %switch.and.i = and i64 %38, -65
  %switch.selectcmp.i = icmp eq i64 %switch.and.i, 0
  br i1 %switch.selectcmp.i, label %select.unfold, label %56

select.unfold:                                    ; preds = %37, %36, %33, %32, %32, %32, %32, %32, %34, %34, %34, %35, %35
  %.1.ph = phi i64 [ %.065, %32 ], [ %.065, %32 ], [ %.065, %32 ], [ %.065, %32 ], [ %.065, %32 ], [ 521, %33 ], [ %.065, %34 ], [ %.065, %34 ], [ %.065, %34 ], [ %.065, %35 ], [ %.065, %35 ], [ 255, %36 ], [ %.065, %37 ]
  %39 = tail call i32 @mbedtls_ecc_group_from_psa(i8 noundef zeroext %31, i64 noundef %.1.ph) #7
  %40 = icmp eq i32 %39, 0
  br i1 %40, label %56, label %41

41:                                               ; preds = %select.unfold
  %42 = tail call i32 @mbedtls_ecp_group_load(ptr noundef nonnull %25, i32 noundef %39) #7
  %43 = tail call i32 @mbedtls_to_psa_error(i32 noundef %42) #7
  %.not55 = icmp eq i32 %43, 0
  br i1 %.not55, label %44, label %56

44:                                               ; preds = %41
  br i1 %8, label %45, label %52

45:                                               ; preds = %44
  %46 = getelementptr inbounds nuw i8, ptr %25, i64 208
  %47 = tail call i32 @mbedtls_ecp_point_read_binary(ptr noundef nonnull %25, ptr noundef nonnull %46, ptr noundef %2, i64 noundef %3) #7
  %48 = tail call i32 @mbedtls_to_psa_error(i32 noundef %47) #7
  %.not57 = icmp eq i32 %48, 0
  br i1 %.not57, label %49, label %56

49:                                               ; preds = %45
  %50 = tail call i32 @mbedtls_ecp_check_pubkey(ptr noundef nonnull %25, ptr noundef nonnull %46) #7
  %51 = tail call i32 @mbedtls_to_psa_error(i32 noundef %50) #7
  %.not58 = icmp eq i32 %51, 0
  br i1 %.not58, label %check_ecc_parameters.exit, label %56

52:                                               ; preds = %44
  %53 = load i32, ptr %25, align 8, !tbaa !3
  %54 = tail call i32 @mbedtls_ecp_read_key(i32 noundef %53, ptr noundef nonnull %25, ptr noundef %2, i64 noundef %3) #7
  %55 = tail call i32 @mbedtls_to_psa_error(i32 noundef %54) #7
  %.not56 = icmp eq i32 %55, 0
  br i1 %.not56, label %check_ecc_parameters.exit, label %56

check_ecc_parameters.exit:                        ; preds = %49, %52
  store ptr %25, ptr %4, align 8, !tbaa !16
  br label %57

56:                                               ; preds = %27, %32, %34, %35, %41, %45, %49, %52, %select.unfold, %37
  %.041.ph = phi i32 [ -135, %37 ], [ -134, %select.unfold ], [ %55, %52 ], [ %51, %49 ], [ %48, %45 ], [ %43, %41 ], [ -135, %35 ], [ -135, %34 ], [ -135, %32 ], [ -135, %27 ]
  tail call void @mbedtls_ecp_keypair_free(ptr noundef nonnull %25) #7
  tail call void @free(ptr noundef nonnull %25) #7
  br label %57

57:                                               ; preds = %check_ecc_parameters.exit, %56, %24, %19, %13
  %.0 = phi i32 [ -135, %13 ], [ -135, %19 ], [ -141, %24 ], [ %.041.ph, %56 ], [ 0, %check_ecc_parameters.exit ]
  ret i32 %.0
}